
heartbeat_skel.elf:     file format elf32-avr

Sections:
Idx Name          Size      VMA       LMA       File off  Algn
  0 .data         00000028  00800100  0000015e  000001f2  2**0
                  CONTENTS, ALLOC, LOAD, DATA
  1 .text         0000015e  00000000  00000000  00000094  2**1
                  CONTENTS, ALLOC, LOAD, READONLY, CODE
  2 .bss          00000001  00800128  00800128  0000021a  2**0
                  ALLOC
  3 .comment      00000030  00000000  00000000  0000021a  2**0
                  CONTENTS, READONLY
  4 .note.gnu.avr.deviceinfo 0000003c  00000000  00000000  0000024c  2**2
                  CONTENTS, READONLY
  5 .debug_aranges 00000028  00000000  00000000  00000288  2**0
                  CONTENTS, READONLY, DEBUGGING
  6 .debug_info   0000085b  00000000  00000000  000002b0  2**0
                  CONTENTS, READONLY, DEBUGGING
  7 .debug_abbrev 000007b3  00000000  00000000  00000b0b  2**0
                  CONTENTS, READONLY, DEBUGGING
  8 .debug_line   00000113  00000000  00000000  000012be  2**0
                  CONTENTS, READONLY, DEBUGGING
  9 .debug_frame  00000058  00000000  00000000  000013d4  2**2
                  CONTENTS, READONLY, DEBUGGING
 10 .debug_str    00000352  00000000  00000000  0000142c  2**0
                  CONTENTS, READONLY, DEBUGGING
 11 .debug_loc    00000070  00000000  00000000  0000177e  2**0
                  CONTENTS, READONLY, DEBUGGING
 12 .debug_ranges 00000018  00000000  00000000  000017ee  2**0
                  CONTENTS, READONLY, DEBUGGING

Disassembly of section .text:

00000000 <__vectors>:
   0:	0c 94 46 00 	jmp	0x8c	; 0x8c <__ctors_end>
   4:	0c 94 65 00 	jmp	0xca	; 0xca <__bad_interrupt>
   8:	0c 94 65 00 	jmp	0xca	; 0xca <__bad_interrupt>
   c:	0c 94 65 00 	jmp	0xca	; 0xca <__bad_interrupt>
  10:	0c 94 65 00 	jmp	0xca	; 0xca <__bad_interrupt>
  14:	0c 94 65 00 	jmp	0xca	; 0xca <__bad_interrupt>
  18:	0c 94 65 00 	jmp	0xca	; 0xca <__bad_interrupt>
  1c:	0c 94 65 00 	jmp	0xca	; 0xca <__bad_interrupt>
  20:	0c 94 65 00 	jmp	0xca	; 0xca <__bad_interrupt>
  24:	0c 94 65 00 	jmp	0xca	; 0xca <__bad_interrupt>
  28:	0c 94 65 00 	jmp	0xca	; 0xca <__bad_interrupt>
  2c:	0c 94 65 00 	jmp	0xca	; 0xca <__bad_interrupt>
  30:	0c 94 65 00 	jmp	0xca	; 0xca <__bad_interrupt>
  34:	0c 94 65 00 	jmp	0xca	; 0xca <__bad_interrupt>
  38:	0c 94 65 00 	jmp	0xca	; 0xca <__bad_interrupt>
  3c:	0c 94 65 00 	jmp	0xca	; 0xca <__bad_interrupt>
  40:	0c 94 65 00 	jmp	0xca	; 0xca <__bad_interrupt>
  44:	0c 94 65 00 	jmp	0xca	; 0xca <__bad_interrupt>
  48:	0c 94 65 00 	jmp	0xca	; 0xca <__bad_interrupt>
  4c:	0c 94 65 00 	jmp	0xca	; 0xca <__bad_interrupt>
  50:	0c 94 65 00 	jmp	0xca	; 0xca <__bad_interrupt>
  54:	0c 94 65 00 	jmp	0xca	; 0xca <__bad_interrupt>
  58:	0c 94 65 00 	jmp	0xca	; 0xca <__bad_interrupt>
  5c:	0c 94 65 00 	jmp	0xca	; 0xca <__bad_interrupt>
  60:	0c 94 65 00 	jmp	0xca	; 0xca <__bad_interrupt>
  64:	0c 94 65 00 	jmp	0xca	; 0xca <__bad_interrupt>
  68:	0c 94 65 00 	jmp	0xca	; 0xca <__bad_interrupt>
  6c:	0c 94 65 00 	jmp	0xca	; 0xca <__bad_interrupt>
  70:	0c 94 65 00 	jmp	0xca	; 0xca <__bad_interrupt>
  74:	0c 94 67 00 	jmp	0xce	; 0xce <__vector_29>
  78:	0c 94 65 00 	jmp	0xca	; 0xca <__bad_interrupt>
  7c:	0c 94 65 00 	jmp	0xca	; 0xca <__bad_interrupt>
  80:	0c 94 65 00 	jmp	0xca	; 0xca <__bad_interrupt>
  84:	0c 94 65 00 	jmp	0xca	; 0xca <__bad_interrupt>
  88:	0c 94 65 00 	jmp	0xca	; 0xca <__bad_interrupt>

0000008c <__ctors_end>:
  8c:	11 24       	eor	r1, r1
  8e:	1f be       	out	0x3f, r1	; 63
  90:	cf ef       	ldi	r28, 0xFF	; 255
  92:	d0 e1       	ldi	r29, 0x10	; 16
  94:	de bf       	out	0x3e, r29	; 62
  96:	cd bf       	out	0x3d, r28	; 61

00000098 <__do_copy_data>:
  98:	11 e0       	ldi	r17, 0x01	; 1
  9a:	a0 e0       	ldi	r26, 0x00	; 0
  9c:	b1 e0       	ldi	r27, 0x01	; 1
  9e:	ee e5       	ldi	r30, 0x5E	; 94
  a0:	f1 e0       	ldi	r31, 0x01	; 1
  a2:	00 e0       	ldi	r16, 0x00	; 0
  a4:	0b bf       	out	0x3b, r16	; 59
  a6:	02 c0       	rjmp	.+4      	; 0xac <__do_copy_data+0x14>
  a8:	07 90       	elpm	r0, Z+
  aa:	0d 92       	st	X+, r0
  ac:	a8 32       	cpi	r26, 0x28	; 40
  ae:	b1 07       	cpc	r27, r17
  b0:	d9 f7       	brne	.-10     	; 0xa8 <__do_copy_data+0x10>

000000b2 <__do_clear_bss>:
  b2:	21 e0       	ldi	r18, 0x01	; 1
  b4:	a8 e2       	ldi	r26, 0x28	; 40
  b6:	b1 e0       	ldi	r27, 0x01	; 1
  b8:	01 c0       	rjmp	.+2      	; 0xbc <.do_clear_bss_start>

000000ba <.do_clear_bss_loop>:
  ba:	1d 92       	st	X+, r1

000000bc <.do_clear_bss_start>:
  bc:	a9 32       	cpi	r26, 0x29	; 41
  be:	b2 07       	cpc	r27, r18
  c0:	e1 f7       	brne	.-8      	; 0xba <.do_clear_bss_loop>
  c2:	0e 94 93 00 	call	0x126	; 0x126 <main>
  c6:	0c 94 ad 00 	jmp	0x15a	; 0x15a <_exit>

000000ca <__bad_interrupt>:
  ca:	0c 94 00 00 	jmp	0	; 0x0 <__vectors>

000000ce <__vector_29>:
uint16_t brightness[20] = {0x0100, 0x1000, 0x7000, 0x9000, 0xC000, 0xD000, 0xD0FF, 0xE000, 0xE0FF, 0xEF00, 0xE0FF, 0xE000, 0xD0FF, 0xD000, 0xC000, 0x9000, 0x7000, 0x1000, 0x0100, 0x0000};
*/

uint16_t brightness[20] = {0x0100, 0x2000, 0x7000, 0xA000, 0xC000, 0xD000, 0xD0EE, 0xDF00, 0xE000, 0xEF00, 0xEF00, 0xE000, 0xDF00, 0xD0EE, 0xD000, 0xC000, 0xA000, 0x7000, 0x2000, 0x0100};

ISR(TIMER3_OVF_vect) {
  ce:	1f 92       	push	r1
  d0:	0f 92       	push	r0
  d2:	0f b6       	in	r0, 0x3f	; 63
  d4:	0f 92       	push	r0
  d6:	11 24       	eor	r1, r1
  d8:	0b b6       	in	r0, 0x3b	; 59
  da:	0f 92       	push	r0
  dc:	2f 93       	push	r18
  de:	3f 93       	push	r19
  e0:	8f 93       	push	r24
  e2:	ef 93       	push	r30
  e4:	ff 93       	push	r31
  static uint8_t index=0;    //steps through the array 
  ICR1 = brightness[index];  //set bounds on index
  e6:	80 91 28 01 	lds	r24, 0x0128	; 0x800128 <__data_end>
  ea:	e8 2f       	mov	r30, r24
  ec:	f0 e0       	ldi	r31, 0x00	; 0
  ee:	ee 0f       	add	r30, r30
  f0:	ff 1f       	adc	r31, r31
  f2:	e0 50       	subi	r30, 0x00	; 0
  f4:	ff 4f       	sbci	r31, 0xFF	; 255
  f6:	20 81       	ld	r18, Z
  f8:	31 81       	ldd	r19, Z+1	; 0x01
  fa:	37 bd       	out	0x27, r19	; 39
  fc:	26 bd       	out	0x26, r18	; 38
  index++;  
  fe:	8f 5f       	subi	r24, 0xFF	; 255
  if(index == 20) {index = 0;}//sset OCR1A to new value
 100:	84 31       	cpi	r24, 0x14	; 20
 102:	71 f0       	breq	.+28     	; 0x120 <__vector_29+0x52>
uint16_t brightness[20] = {0x0100, 0x2000, 0x7000, 0xA000, 0xC000, 0xD000, 0xD0EE, 0xDF00, 0xE000, 0xEF00, 0xEF00, 0xE000, 0xDF00, 0xD0EE, 0xD000, 0xC000, 0xA000, 0x7000, 0x2000, 0x0100};

ISR(TIMER3_OVF_vect) {
  static uint8_t index=0;    //steps through the array 
  ICR1 = brightness[index];  //set bounds on index
  index++;  
 104:	80 93 28 01 	sts	0x0128, r24	; 0x800128 <__data_end>
  if(index == 20) {index = 0;}//sset OCR1A to new value
}
 108:	ff 91       	pop	r31
 10a:	ef 91       	pop	r30
 10c:	8f 91       	pop	r24
 10e:	3f 91       	pop	r19
 110:	2f 91       	pop	r18
 112:	0f 90       	pop	r0
 114:	0b be       	out	0x3b, r0	; 59
 116:	0f 90       	pop	r0
 118:	0f be       	out	0x3f, r0	; 63
 11a:	0f 90       	pop	r0
 11c:	1f 90       	pop	r1
 11e:	18 95       	reti

ISR(TIMER3_OVF_vect) {
  static uint8_t index=0;    //steps through the array 
  ICR1 = brightness[index];  //set bounds on index
  index++;  
  if(index == 20) {index = 0;}//sset OCR1A to new value
 120:	10 92 28 01 	sts	0x0128, r1	; 0x800128 <__data_end>
}
 124:	f1 cf       	rjmp	.-30     	; 0x108 <__vector_29+0x3a>

00000126 <main>:

int main() {
  // setup TCNT1 in PWM mode 
  //set PORTB bit 5 as the PWM output
  DDRB   = 0x20;          
 126:	80 e2       	ldi	r24, 0x20	; 32
 128:	87 bb       	out	0x17, r24	; 23
  //fast PWM, set on match, clear at top, ICR1 holds value of TOP 
  TCCR1A |= (1<<COM1A1) | (1<<COM1A0) | (1<<WGM11);
 12a:	8f b5       	in	r24, 0x2f	; 47
 12c:	82 6c       	ori	r24, 0xC2	; 194
 12e:	8f bd       	out	0x2f, r24	; 47
  //use ICR1 as source for TOP, use clk/1
  TCCR1B |= (1<<WGM13) | (1<<WGM12) | (1<<CS10);
 130:	8e b5       	in	r24, 0x2e	; 46
 132:	89 61       	ori	r24, 0x19	; 25
 134:	8e bd       	out	0x2e, r24	; 46
  //no forced compare 
  TCCR1C = 0x00;
 136:	10 92 7a 00 	sts	0x007A, r1	; 0x80007a <__TEXT_REGION_LENGTH__+0x7e007a>
  //clear at 0xF000                               
  ICR1  = 0xF000;
 13a:	80 e0       	ldi	r24, 0x00	; 0
 13c:	90 ef       	ldi	r25, 0xF0	; 240
 13e:	97 bd       	out	0x27, r25	; 39
 140:	86 bd       	out	0x26, r24	; 38
  
// setup TCNT3 in normal mode to control the update rate 
// heartbeat update frequency = (16,000,000)/(8 * 2^16) = 30 cycles/sec
  //normal mode
  TCCR3A = 0x00;
 142:	10 92 8b 00 	sts	0x008B, r1	; 0x80008b <__TEXT_REGION_LENGTH__+0x7e008b>
  //use clk/8  (30hz)  
  TCCR3B = (1<<CS31);
 146:	82 e0       	ldi	r24, 0x02	; 2
 148:	80 93 8a 00 	sts	0x008A, r24	; 0x80008a <__TEXT_REGION_LENGTH__+0x7e008a>
  //no forced compare 
  TCCR3C = 0x00;
 14c:	10 92 8c 00 	sts	0x008C, r1	; 0x80008c <__TEXT_REGION_LENGTH__+0x7e008c>
  //enable timer 3 interrupt on TOV
  ETIMSK = (1<<TOIE3);
 150:	84 e0       	ldi	r24, 0x04	; 4
 152:	80 93 7d 00 	sts	0x007D, r24	; 0x80007d <__TEXT_REGION_LENGTH__+0x7e007d>

  sei();  //set GIE
 156:	78 94       	sei
 158:	ff cf       	rjmp	.-2      	; 0x158 <main+0x32>

0000015a <_exit>:
 15a:	f8 94       	cli

0000015c <__stop_program>:
 15c:	ff cf       	rjmp	.-2      	; 0x15c <__stop_program>
